; Function Attrs: nounwind sspstrong uwtable
define internal noundef i32 @branch_coverage_ii(i64 %0, i64 noundef %1, i64 noundef %2) #0 {
  %4 = inttoptr i64 %2 to ptr
  %5 = inttoptr i64 %1 to ptr
  %6 = load i64, ptr %5, align 8, !tbaa !14
  %7 = and i64 %6, 8192
  %.not.i.i = icmp eq i64 %7, 0
  br i1 %.not.i.i, label %14, label %8

8:                                                ; preds = %3
  %9 = getelementptr inbounds nuw i8, ptr %5, i64 16
  %10 = getelementptr inbounds nuw i8, ptr %5, i64 24
  %11 = getelementptr inbounds nuw i8, ptr %5, i64 32
  %12 = getelementptr inbounds nuw i8, ptr %5, i64 40
  %13 = getelementptr inbounds nuw i8, ptr %5, i64 48
  br label %RARRAY_AREF.exit29

14:                                               ; preds = %3
  %15 = getelementptr inbounds nuw i8, ptr %5, i64 32
  %16 = load ptr, ptr %15, align 8, !tbaa !16
  %17 = getelementptr inbounds nuw i8, ptr %16, i64 8
  %18 = getelementptr inbounds nuw i8, ptr %16, i64 16
  %19 = getelementptr inbounds nuw i8, ptr %16, i64 24
  %20 = getelementptr inbounds nuw i8, ptr %16, i64 32
  br label %RARRAY_AREF.exit29

RARRAY_AREF.exit29:                               ; preds = %8, %14
  %.in = phi ptr [ %13, %8 ], [ %20, %14 ]
  %.in38 = phi ptr [ %11, %8 ], [ %18, %14 ]
  %.in39 = phi ptr [ %9, %8 ], [ %16, %14 ]
  %.in40 = phi ptr [ %10, %8 ], [ %17, %14 ]
  %.in41 = phi ptr [ %12, %8 ], [ %19, %14 ]
  %21 = load i64, ptr %.in41, align 8, !tbaa !10
  %22 = load i64, ptr %.in40, align 8, !tbaa !10
  %23 = load i64, ptr %.in39, align 8, !tbaa !10
  %24 = load i64, ptr %.in38, align 8, !tbaa !10
  %25 = load i64, ptr %.in, align 8, !tbaa !10
  %26 = getelementptr inbounds nuw i8, ptr %.in39, i64 40
  %27 = load i64, ptr %26, align 8, !tbaa !10
  %28 = getelementptr inbounds nuw i8, ptr %4, i64 16
  %29 = load i64, ptr %28, align 8, !tbaa !29
  %30 = load i32, ptr %4, align 8, !tbaa !17
  %31 = add nsw i32 %30, 1
  store i32 %31, ptr %4, align 8, !tbaa !17
  %32 = sext i32 %30 to i64
  %33 = shl nsw i64 %32, 1
  %34 = or disjoint i64 %33, 1
  %35 = tail call i64 (i64, ...) @rb_ary_new_from_args(i64 noundef 6, i64 noundef %23, i64 noundef %34, i64 noundef %22, i64 noundef %24, i64 noundef %21, i64 noundef %25) #9
  %36 = getelementptr inbounds nuw i8, ptr %4, i64 24
  %37 = load i64, ptr %36, align 8, !tbaa !20
  %38 = inttoptr i64 %37 to ptr
  %39 = load i64, ptr %38, align 8, !tbaa !14
  %40 = and i64 %39, 8192
  %.not.i.i30 = icmp eq i64 %40, 0
  br i1 %.not.i.i30, label %43, label %41

41:                                               ; preds = %RARRAY_AREF.exit29
  %42 = getelementptr inbounds nuw i8, ptr %38, i64 16
  br label %RARRAY_AREF.exit32

43:                                               ; preds = %RARRAY_AREF.exit29
  %44 = getelementptr inbounds nuw i8, ptr %38, i64 32
  %45 = load ptr, ptr %44, align 8, !tbaa !16
  br label %RARRAY_AREF.exit32

RARRAY_AREF.exit32:                               ; preds = %41, %43
  %.0.i.i31 = phi ptr [ %42, %41 ], [ %45, %43 ]
  %46 = ashr i64 %27, 1
  %47 = getelementptr inbounds i64, ptr %.0.i.i31, i64 %46
  %48 = load i64, ptr %47, align 8, !tbaa !10
  %49 = tail call i64 @rb_hash_aset(i64 noundef %29, i64 noundef %35, i64 noundef %48) #9
  ret i32 0
}